; Function Attrs: nofree norecurse nosync nounwind memory(argmem: readwrite) uwtable
define internal i32 @lv_text_utf8_get_char_id(ptr nocapture noundef readonly %0, i32 noundef %1) #4 {
  %3 = alloca i32, align 4
  call void @llvm.lifetime.start.p0(i64 4, ptr nonnull %3) #11
  store i32 0, ptr %3, align 4, !tbaa !6
  %.not = icmp eq i32 %1, 0
  br i1 %.not, label %._crit_edge, label %.lr.ph

.lr.ph:                                           ; preds = %2, %.lr.ph
  %.03 = phi i32 [ %5, %.lr.ph ], [ 0, %2 ]
  %4 = call i32 @lv_text_utf8_next(ptr noundef %0, ptr noundef nonnull %3)
  %5 = add i32 %.03, 1
  %6 = load i32, ptr %3, align 4, !tbaa !6
  %7 = icmp ult i32 %6, %1
  br i1 %7, label %.lr.ph, label %._crit_edge, !llvm.loop !12

._crit_edge:                                      ; preds = %.lr.ph, %2
  %.0.lcssa = phi i32 [ 0, %2 ], [ %5, %.lr.ph ]
  call void @llvm.lifetime.end.p0(i64 4, ptr nonnull %3) #11
  ret i32 %.0.lcssa
}